target datalayout = "e-m:e-p270:32:32-p271:32:32-p272:64:64-i64:64-i128:128-f80:128-n8:16:32:64-S128"
target triple = "x86_64-pc-linux-gnu"

%struct._lv_cache_entry_t = type { ptr, i32, i32, i8 }

; Function Attrs: nounwind uwtable
define void @lv_cache_entry_dec_ref(ptr noundef %0) #0 {
  %2 = alloca ptr, align 8
  store ptr %0, ptr %2, align 8, !tbaa !3
  br label %3

3:                                                ; preds = %1
  %4 = load ptr, ptr %2, align 8, !tbaa !3
  %5 = icmp ne ptr %4, null
  br i1 %5, label %10, label %6

6:                                                ; preds = %3
  br label %7

7:                                                ; preds = %6
  br label %8

8:                                                ; preds = %7
  br label %9

9:                                                ; preds = %8, %9
  br label %9

10:                                               ; preds = %3
  br label %11

11:                                               ; preds = %10
  %12 = load ptr, ptr %2, align 8, !tbaa !3
  %13 = getelementptr inbounds nuw %struct._lv_cache_entry_t, ptr %12, i32 0, i32 1
  %14 = load i32, ptr %13, align 8, !tbaa !8
  %15 = add nsw i32 %14, -1
  store i32 %15, ptr %13, align 8, !tbaa !8
  %16 = load ptr, ptr %2, align 8, !tbaa !3
  %17 = getelementptr inbounds nuw %struct._lv_cache_entry_t, ptr %16, i32 0, i32 1
  %18 = load i32, ptr %17, align 8, !tbaa !8
  %19 = icmp slt i32 %18, 0
  br i1 %19, label %20, label %25

20:                                               ; preds = %11
  br label %21

21:                                               ; preds = %20
  br label %22

22:                                               ; preds = %21
  %23 = load ptr, ptr %2, align 8, !tbaa !3
  %24 = getelementptr inbounds nuw %struct._lv_cache_entry_t, ptr %23, i32 0, i32 1
  store i32 0, ptr %24, align 8, !tbaa !8
  br label %25

25:                                               ; preds = %22, %11
  ret void
}